target datalayout = "e-m:e-p270:32:32-p271:32:32-p272:64:64-i64:64-i128:128-f80:128-n8:16:32:64-S128"
target triple = "x86_64-pc-linux-gnu"

; Function Attrs: mustprogress nounwind uwtable
define linkonce_odr hidden noundef float @_ZNSt14numeric_limitsIfE3maxEv() #2 comdat align 2 {
  ret float 0x47EFFFFFE0000000
}

; Function Attrs: mustprogress uwtable
define hidden void @_ZN2cv15batchDistL2Sqr_IffEEvPKT_S3_miiPT0_PKh(ptr noundef %0, ptr noundef %1, i64 noundef %2, i32 noundef %3, i32 noundef %4, ptr noundef %5, ptr noundef %6) #0 {
  %8 = alloca ptr, align 8
  %9 = alloca ptr, align 8
  %10 = alloca i64, align 8
  %11 = alloca i32, align 4
  %12 = alloca i32, align 4
  %13 = alloca ptr, align 8
  %14 = alloca ptr, align 8
  %15 = alloca i32, align 4
  %16 = alloca float, align 4
  %17 = alloca i32, align 4
  store ptr %0, ptr %8, align 8
  store ptr %1, ptr %9, align 8
  store i64 %2, ptr %10, align 8
  store i32 %3, ptr %11, align 4
  store i32 %4, ptr %12, align 4
  store ptr %5, ptr %13, align 8
  store ptr %6, ptr %14, align 8
  %18 = load i64, ptr %10, align 8
  %19 = udiv i64 %18, 4
  store i64 %19, ptr %10, align 8
  %20 = load ptr, ptr %14, align 8
  %21 = icmp ne ptr %20, null
  br i1 %21, label %45, label %22

22:                                               ; preds = %7
  store i32 0, ptr %15, align 4
  br label %23

23:                                               ; preds = %41, %22
  %24 = load i32, ptr %15, align 4
  %25 = load i32, ptr %11, align 4
  %26 = icmp slt i32 %24, %25
  br i1 %26, label %27, label %44

27:                                               ; preds = %23
  %28 = load ptr, ptr %8, align 8
  %29 = load ptr, ptr %9, align 8
  %30 = load i64, ptr %10, align 8
  %31 = load i32, ptr %15, align 4
  %32 = sext i32 %31 to i64
  %33 = mul i64 %30, %32
  %34 = getelementptr inbounds float, ptr %29, i64 %33
  %35 = load i32, ptr %12, align 4
  %36 = call noundef float @_ZN2cv3hal10normL2Sqr_EPKfS2_i(ptr noundef %28, ptr noundef %34, i32 noundef %35)
  %37 = load ptr, ptr %13, align 8
  %38 = load i32, ptr %15, align 4
  %39 = sext i32 %38 to i64
  %40 = getelementptr inbounds float, ptr %37, i64 %39
  store float %36, ptr %40, align 4
  br label %41

41:                                               ; preds = %27
  %42 = load i32, ptr %15, align 4
  %43 = add nsw i32 %42, 1
  store i32 %43, ptr %15, align 4
  br label %23, !llvm.loop !4

44:                                               ; preds = %23
  br label %80

45:                                               ; preds = %7
  %46 = call noundef float @_ZNSt14numeric_limitsIfE3maxEv() #9
  store float %46, ptr %16, align 4
  store i32 0, ptr %17, align 4
  br label %47

47:                                               ; preds = %76, %45
  %48 = load i32, ptr %17, align 4
  %49 = load i32, ptr %11, align 4
  %50 = icmp slt i32 %48, %49
  br i1 %50, label %51, label %79

51:                                               ; preds = %47
  %52 = load ptr, ptr %14, align 8
  %53 = load i32, ptr %17, align 4
  %54 = sext i32 %53 to i64
  %55 = getelementptr inbounds i8, ptr %52, i64 %54
  %56 = load i8, ptr %55, align 1
  %57 = icmp ne i8 %56, 0
  br i1 %57, label %58, label %68

58:                                               ; preds = %51
  %59 = load ptr, ptr %8, align 8
  %60 = load ptr, ptr %9, align 8
  %61 = load i64, ptr %10, align 8
  %62 = load i32, ptr %17, align 4
  %63 = sext i32 %62 to i64
  %64 = mul i64 %61, %63
  %65 = getelementptr inbounds float, ptr %60, i64 %64
  %66 = load i32, ptr %12, align 4
  %67 = call noundef float @_ZN2cv3hal10normL2Sqr_EPKfS2_i(ptr noundef %59, ptr noundef %65, i32 noundef %66)
  br label %70

68:                                               ; preds = %51
  %69 = load float, ptr %16, align 4
  br label %70

70:                                               ; preds = %68, %58
  %71 = phi float [ %67, %58 ], [ %69, %68 ]
  %72 = load ptr, ptr %13, align 8
  %73 = load i32, ptr %17, align 4
  %74 = sext i32 %73 to i64
  %75 = getelementptr inbounds float, ptr %72, i64 %74
  store float %71, ptr %75, align 4
  br label %76

76:                                               ; preds = %70
  %77 = load i32, ptr %17, align 4
  %78 = add nsw i32 %77, 1
  store i32 %78, ptr %17, align 4
  br label %47, !llvm.loop !6

79:                                               ; preds = %47
  br label %80

80:                                               ; preds = %79, %44
  ret void
}

; Function Attrs: mustprogress uwtable
define internal void @_ZN2cvL18batchDistL2Sqr_32fEPKfS1_miiPfPKh(ptr noundef %0, ptr noundef %1, i64 noundef %2, i32 noundef %3, i32 noundef %4, ptr noundef %5, ptr noundef %6) #0 {
  %8 = alloca ptr, align 8
  %9 = alloca ptr, align 8
  %10 = alloca i64, align 8
  %11 = alloca i32, align 4
  %12 = alloca i32, align 4
  %13 = alloca ptr, align 8
  %14 = alloca ptr, align 8
  store ptr %0, ptr %8, align 8
  store ptr %1, ptr %9, align 8
  store i64 %2, ptr %10, align 8
  store i32 %3, ptr %11, align 4
  store i32 %4, ptr %12, align 4
  store ptr %5, ptr %13, align 8
  store ptr %6, ptr %14, align 8
  %15 = load ptr, ptr %8, align 8
  %16 = load ptr, ptr %9, align 8
  %17 = load i64, ptr %10, align 8
  %18 = load i32, ptr %11, align 4
  %19 = load i32, ptr %12, align 4
  %20 = load ptr, ptr %13, align 8
  %21 = load ptr, ptr %14, align 8
  call void @_ZN2cv15batchDistL2Sqr_IffEEvPKT_S3_miiPT0_PKh(ptr noundef %15, ptr noundef %16, i64 noundef %17, i32 noundef %18, i32 noundef %19, ptr noundef %20, ptr noundef %21)
  ret void
}