; Function Attrs: mustprogress uwtable
define internal void @_ZN2cvL18batchDistL2Sqr_32fEPKfS1_miiPfPKh(ptr noundef %0, ptr noundef %1, i64 noundef %2, i32 noundef %3, i32 noundef %4, ptr nocapture noundef writeonly %5, ptr noundef readonly %6) #0 {
  %8 = lshr i64 %2, 2
  %.not.i = icmp eq ptr %6, null
  %9 = icmp sgt i32 %3, 0
  br i1 %.not.i, label %.preheader.i, label %.preheader27.i

.preheader27.i:                                   ; preds = %7
  br i1 %9, label %.lr.ph.preheader.i, label %_ZN2cv15batchDistL2Sqr_IffEEvPKT_S3_miiPT0_PKh.exit

.lr.ph.preheader.i:                               ; preds = %.preheader27.i
  %wide.trip.count.i = zext nneg i32 %3 to i64
  br label %.lr.ph.i

.preheader.i:                                     ; preds = %7
  br i1 %9, label %.lr.ph31.preheader.i, label %_ZN2cv15batchDistL2Sqr_IffEEvPKT_S3_miiPT0_PKh.exit

.lr.ph31.preheader.i:                             ; preds = %.preheader.i
  %wide.trip.count37.i = zext nneg i32 %3 to i64
  br label %.lr.ph31.i

.lr.ph31.i:                                       ; preds = %.lr.ph31.i, %.lr.ph31.preheader.i
  %indvars.iv34.i = phi i64 [ 0, %.lr.ph31.preheader.i ], [ %indvars.iv.next35.i, %.lr.ph31.i ]
  %10 = mul i64 %indvars.iv34.i, %8
  %11 = getelementptr inbounds float, ptr %1, i64 %10
  %12 = tail call noundef float @_ZN2cv3hal10normL2Sqr_EPKfS2_i(ptr noundef %0, ptr noundef %11, i32 noundef %4)
  %13 = getelementptr inbounds float, ptr %5, i64 %indvars.iv34.i
  store float %12, ptr %13, align 4
  %indvars.iv.next35.i = add nuw nsw i64 %indvars.iv34.i, 1
  %exitcond38.not.i = icmp eq i64 %indvars.iv.next35.i, %wide.trip.count37.i
  br i1 %exitcond38.not.i, label %_ZN2cv15batchDistL2Sqr_IffEEvPKT_S3_miiPT0_PKh.exit, label %.lr.ph31.i, !llvm.loop !4

.lr.ph.i:                                         ; preds = %20, %.lr.ph.preheader.i
  %indvars.iv.i = phi i64 [ 0, %.lr.ph.preheader.i ], [ %indvars.iv.next.i, %20 ]
  %14 = getelementptr inbounds i8, ptr %6, i64 %indvars.iv.i
  %15 = load i8, ptr %14, align 1
  %.not26.i = icmp eq i8 %15, 0
  br i1 %.not26.i, label %20, label %16

16:                                               ; preds = %.lr.ph.i
  %17 = mul i64 %indvars.iv.i, %8
  %18 = getelementptr inbounds float, ptr %1, i64 %17
  %19 = tail call noundef float @_ZN2cv3hal10normL2Sqr_EPKfS2_i(ptr noundef %0, ptr noundef %18, i32 noundef %4)
  br label %20

20:                                               ; preds = %16, %.lr.ph.i
  %21 = phi float [ %19, %16 ], [ 0x47EFFFFFE0000000, %.lr.ph.i ]
  %22 = getelementptr inbounds float, ptr %5, i64 %indvars.iv.i
  store float %21, ptr %22, align 4
  %indvars.iv.next.i = add nuw nsw i64 %indvars.iv.i, 1
  %exitcond.not.i = icmp eq i64 %indvars.iv.next.i, %wide.trip.count.i
  br i1 %exitcond.not.i, label %_ZN2cv15batchDistL2Sqr_IffEEvPKT_S3_miiPT0_PKh.exit, label %.lr.ph.i, !llvm.loop !6

_ZN2cv15batchDistL2Sqr_IffEEvPKT_S3_miiPT0_PKh.exit: ; preds = %20, %.lr.ph31.i, %.preheader27.i, %.preheader.i
  ret void
}